; Function Attrs: nounwind sspstrong uwtable
define dso_local zeroext i1 @visit_type_GuestPanicInformationHyperV_members(ptr noundef %v, ptr noundef %obj, ptr noundef %errp) local_unnamed_addr #0 {
entry:
  %call = tail call zeroext i1 @visit_type_uint64(ptr noundef %v, ptr noundef nonnull @.str.14, ptr noundef %obj, ptr noundef %errp) #5
  br i1 %call, label %if.end, label %return

if.end:                                           ; preds = %entry
  %arg2 = getelementptr inbounds nuw i8, ptr %obj, i64 8
  %call1 = tail call zeroext i1 @visit_type_uint64(ptr noundef %v, ptr noundef nonnull @.str.15, ptr noundef nonnull %arg2, ptr noundef %errp) #5
  br i1 %call1, label %if.end3, label %return

if.end3:                                          ; preds = %if.end
  %arg3 = getelementptr inbounds nuw i8, ptr %obj, i64 16
  %call4 = tail call zeroext i1 @visit_type_uint64(ptr noundef %v, ptr noundef nonnull @.str.16, ptr noundef nonnull %arg3, ptr noundef %errp) #5
  br i1 %call4, label %if.end6, label %return

if.end6:                                          ; preds = %if.end3
  %arg4 = getelementptr inbounds nuw i8, ptr %obj, i64 24
  %call7 = tail call zeroext i1 @visit_type_uint64(ptr noundef %v, ptr noundef nonnull @.str.17, ptr noundef nonnull %arg4, ptr noundef %errp) #5
  br i1 %call7, label %if.end9, label %return

if.end9:                                          ; preds = %if.end6
  %arg5 = getelementptr inbounds nuw i8, ptr %obj, i64 32
  %call10 = tail call zeroext i1 @visit_type_uint64(ptr noundef %v, ptr noundef nonnull @.str.18, ptr noundef nonnull %arg5, ptr noundef %errp) #5
  br label %return

return:                                           ; preds = %if.end9, %if.end6, %if.end3, %if.end, %entry
  %retval.0 = phi i1 [ false, %entry ], [ false, %if.end ], [ false, %if.end3 ], [ false, %if.end6 ], [ %call10, %if.end9 ]
  ret i1 %retval.0
}